target datalayout = "e-m:e-p270:32:32-p271:32:32-p272:64:64-i64:64-i128:128-f80:128-n8:16:32:64-S128"
target triple = "x86_64-pc-linux-gnu"

; Function Attrs: inlinehint nounwind sspstrong uwtable
define internal i64 @murmur_finish(i64 noundef %0) #3 {
  %2 = alloca i64, align 8
  %3 = alloca i64, align 8
  %4 = alloca i64, align 8
  store i64 %0, ptr %2, align 8, !tbaa !14
  call void @llvm.lifetime.start.p0(i64 8, ptr %3) #14
  store i64 -4658895280553007687, ptr %3, align 8, !tbaa !14
  call void @llvm.lifetime.start.p0(i64 8, ptr %4) #14
  store i64 -7723592293110705685, ptr %4, align 8, !tbaa !14
  %5 = load i64, ptr %2, align 8, !tbaa !14
  %6 = lshr i64 %5, 30
  %7 = load i64, ptr %2, align 8, !tbaa !14
  %8 = xor i64 %7, %6
  store i64 %8, ptr %2, align 8, !tbaa !14
  %9 = load i64, ptr %2, align 8, !tbaa !14
  %10 = mul i64 %9, -4658895280553007687
  store i64 %10, ptr %2, align 8, !tbaa !14
  %11 = load i64, ptr %2, align 8, !tbaa !14
  %12 = lshr i64 %11, 27
  %13 = load i64, ptr %2, align 8, !tbaa !14
  %14 = xor i64 %13, %12
  store i64 %14, ptr %2, align 8, !tbaa !14
  %15 = load i64, ptr %2, align 8, !tbaa !14
  %16 = mul i64 %15, -7723592293110705685
  store i64 %16, ptr %2, align 8, !tbaa !14
  %17 = load i64, ptr %2, align 8, !tbaa !14
  %18 = lshr i64 %17, 31
  %19 = load i64, ptr %2, align 8, !tbaa !14
  %20 = xor i64 %19, %18
  store i64 %20, ptr %2, align 8, !tbaa !14
  %21 = load i64, ptr %2, align 8, !tbaa !14
  call void @llvm.lifetime.end.p0(i64 8, ptr %4) #14
  call void @llvm.lifetime.end.p0(i64 8, ptr %3) #14
  ret i64 %21
}

; Function Attrs: nounwind sspstrong willreturn memory(none) uwtable
define dso_local i64 @rb_parser_st_hash_end(i64 noundef %0) #9 {
  %2 = alloca i64, align 8
  store i64 %0, ptr %2, align 8, !tbaa !14
  %3 = load i64, ptr %2, align 8, !tbaa !14
  %4 = call i64 @murmur_finish(i64 noundef %3)
  store i64 %4, ptr %2, align 8, !tbaa !14
  %5 = load i64, ptr %2, align 8, !tbaa !14
  ret i64 %5
}