; Function Attrs: mustprogress nofree norecurse nosync nounwind sspstrong willreturn memory(none) uwtable
define dso_local i64 @rb_parser_st_hash_end(i64 noundef %0) local_unnamed_addr #11 {
  %2 = lshr i64 %0, 30
  %3 = xor i64 %2, %0
  %4 = mul i64 %3, -4658895280553007687
  %5 = lshr i64 %4, 27
  %6 = xor i64 %5, %4
  %7 = mul i64 %6, -7723592293110705685
  %8 = lshr i64 %7, 31
  %9 = xor i64 %8, %7
  ret i64 %9
}